target datalayout = "e-m:e-p270:32:32-p271:32:32-p272:64:64-i64:64-i128:128-f80:128-n8:16:32:64-S128"
target triple = "x86_64-unknown-linux-gnu"

%"class.icu_75::CurrencyPluralInfo" = type <{ %"class.icu_75::UObject", ptr, ptr, ptr, i32, [4 x i8] }>
%"class.icu_75::UObject" = type { ptr }
%"class.icu_75::Locale" = type <{ %"class.icu_75::UObject", [12 x i8], [6 x i8], [4 x i8], [2 x i8], i32, [4 x i8], ptr, [157 x i8], [3 x i8], ptr, i8, [7 x i8] }>

; Function Attrs: mustprogress nounwind uwtable
define linkonce_odr noundef signext i8 @_ZNK6icu_756Locale7isBogusEv(ptr noundef nonnull align 8 dereferenceable(217) %this) #0 comdat align 2 {
entry:
  %this.addr = alloca ptr, align 8
  store ptr %this, ptr %this.addr, align 8
  %this1 = load ptr, ptr %this.addr, align 8
  %fIsBogus = getelementptr inbounds %"class.icu_75::Locale", ptr %this1, i32 0, i32 11
  %0 = load i8, ptr %fIsBogus, align 8
  ret i8 %0
}

; Function Attrs: mustprogress nounwind uwtable
define internal noundef signext i8 @_ZL9U_FAILURE10UErrorCode(i32 noundef %code) #0 {
entry:
  %code.addr = alloca i32, align 4
  store i32 %code, ptr %code.addr, align 4
  %0 = load i32, ptr %code.addr, align 4
  %cmp = icmp sgt i32 %0, 0
  %conv = zext i1 %cmp to i8
  ret i8 %conv
}

; Function Attrs: mustprogress uwtable
define noundef nonnull align 8 dereferenceable(36) ptr @_ZN6icu_7518CurrencyPluralInfoaSERKS0_(ptr noundef nonnull align 8 dereferenceable(36) %this, ptr noundef nonnull align 8 dereferenceable(36) %info) #1 align 2 {
entry:
  %retval = alloca ptr, align 8
  %this.addr = alloca ptr, align 8
  %info.addr = alloca ptr, align 8
  store ptr %this, ptr %this.addr, align 8
  store ptr %info, ptr %info.addr, align 8
  %this1 = load ptr, ptr %this.addr, align 8
  %0 = load ptr, ptr %info.addr, align 8
  %cmp = icmp eq ptr %this1, %0
  br i1 %cmp, label %if.then, label %if.end

if.then:                                          ; preds = %entry
  store ptr %this1, ptr %retval, align 8
  br label %return

if.end:                                           ; preds = %entry
  %1 = load ptr, ptr %info.addr, align 8
  %fInternalStatus = getelementptr inbounds %"class.icu_75::CurrencyPluralInfo", ptr %1, i32 0, i32 4
  %2 = load i32, ptr %fInternalStatus, align 8
  %fInternalStatus2 = getelementptr inbounds %"class.icu_75::CurrencyPluralInfo", ptr %this1, i32 0, i32 4
  store i32 %2, ptr %fInternalStatus2, align 8
  %fInternalStatus3 = getelementptr inbounds %"class.icu_75::CurrencyPluralInfo", ptr %this1, i32 0, i32 4
  %3 = load i32, ptr %fInternalStatus3, align 8
  %call = call noundef signext i8 @_ZL9U_FAILURE10UErrorCode(i32 noundef %3)
  %tobool = icmp ne i8 %call, 0
  br i1 %tobool, label %if.then4, label %if.end5

if.then4:                                         ; preds = %if.end
  store ptr %this1, ptr %retval, align 8
  br label %return

if.end5:                                          ; preds = %if.end
  %fPluralCountToCurrencyUnitPattern = getelementptr inbounds %"class.icu_75::CurrencyPluralInfo", ptr %this1, i32 0, i32 1
  %4 = load ptr, ptr %fPluralCountToCurrencyUnitPattern, align 8
  call void @_ZN6icu_7518CurrencyPluralInfo10deleteHashEPNS_9HashtableE(ptr noundef nonnull align 8 dereferenceable(36) %this1, ptr noundef %4)
  %fInternalStatus6 = getelementptr inbounds %"class.icu_75::CurrencyPluralInfo", ptr %this1, i32 0, i32 4
  %call7 = call noundef ptr @_ZN6icu_7518CurrencyPluralInfo8initHashER10UErrorCode(ptr noundef nonnull align 8 dereferenceable(36) %this1, ptr noundef nonnull align 4 dereferenceable(4) %fInternalStatus6)
  %fPluralCountToCurrencyUnitPattern8 = getelementptr inbounds %"class.icu_75::CurrencyPluralInfo", ptr %this1, i32 0, i32 1
  store ptr %call7, ptr %fPluralCountToCurrencyUnitPattern8, align 8
  %5 = load ptr, ptr %info.addr, align 8
  %fPluralCountToCurrencyUnitPattern9 = getelementptr inbounds %"class.icu_75::CurrencyPluralInfo", ptr %5, i32 0, i32 1
  %6 = load ptr, ptr %fPluralCountToCurrencyUnitPattern9, align 8
  %fPluralCountToCurrencyUnitPattern10 = getelementptr inbounds %"class.icu_75::CurrencyPluralInfo", ptr %this1, i32 0, i32 1
  %7 = load ptr, ptr %fPluralCountToCurrencyUnitPattern10, align 8
  %fInternalStatus11 = getelementptr inbounds %"class.icu_75::CurrencyPluralInfo", ptr %this1, i32 0, i32 4
  call void @_ZN6icu_7518CurrencyPluralInfo8copyHashEPKNS_9HashtableEPS1_R10UErrorCode(ptr noundef nonnull align 8 dereferenceable(36) %this1, ptr noundef %6, ptr noundef %7, ptr noundef nonnull align 4 dereferenceable(4) %fInternalStatus11)
  %fInternalStatus12 = getelementptr inbounds %"class.icu_75::CurrencyPluralInfo", ptr %this1, i32 0, i32 4
  %8 = load i32, ptr %fInternalStatus12, align 8
  %call13 = call noundef signext i8 @_ZL9U_FAILURE10UErrorCode(i32 noundef %8)
  %tobool14 = icmp ne i8 %call13, 0
  br i1 %tobool14, label %if.then15, label %if.end16

if.then15:                                        ; preds = %if.end5
  store ptr %this1, ptr %retval, align 8
  br label %return

if.end16:                                         ; preds = %if.end5
  %fPluralRules = getelementptr inbounds %"class.icu_75::CurrencyPluralInfo", ptr %this1, i32 0, i32 2
  %9 = load ptr, ptr %fPluralRules, align 8
  %isnull = icmp eq ptr %9, null
  br i1 %isnull, label %delete.end, label %delete.notnull

delete.notnull:                                   ; preds = %if.end16
  %vtable = load ptr, ptr %9, align 8
  %vfn = getelementptr inbounds ptr, ptr %vtable, i64 1
  %10 = load ptr, ptr %vfn, align 8
  call void %10(ptr noundef nonnull align 8 dereferenceable(28) %9) #7
  br label %delete.end

delete.end:                                       ; preds = %delete.notnull, %if.end16
  %fPluralRules17 = getelementptr inbounds %"class.icu_75::CurrencyPluralInfo", ptr %this1, i32 0, i32 2
  store ptr null, ptr %fPluralRules17, align 8
  %fLocale = getelementptr inbounds %"class.icu_75::CurrencyPluralInfo", ptr %this1, i32 0, i32 3
  %11 = load ptr, ptr %fLocale, align 8
  %isnull18 = icmp eq ptr %11, null
  br i1 %isnull18, label %delete.end22, label %delete.notnull19

delete.notnull19:                                 ; preds = %delete.end
  %vtable20 = load ptr, ptr %11, align 8
  %vfn21 = getelementptr inbounds ptr, ptr %vtable20, i64 1
  %12 = load ptr, ptr %vfn21, align 8
  call void %12(ptr noundef nonnull align 8 dereferenceable(217) %11) #7
  br label %delete.end22

delete.end22:                                     ; preds = %delete.notnull19, %delete.end
  %fLocale23 = getelementptr inbounds %"class.icu_75::CurrencyPluralInfo", ptr %this1, i32 0, i32 3
  store ptr null, ptr %fLocale23, align 8
  %13 = load ptr, ptr %info.addr, align 8
  %fPluralRules24 = getelementptr inbounds %"class.icu_75::CurrencyPluralInfo", ptr %13, i32 0, i32 2
  %14 = load ptr, ptr %fPluralRules24, align 8
  %cmp25 = icmp ne ptr %14, null
  br i1 %cmp25, label %if.then26, label %if.end35

if.then26:                                        ; preds = %delete.end22
  %15 = load ptr, ptr %info.addr, align 8
  %fPluralRules27 = getelementptr inbounds %"class.icu_75::CurrencyPluralInfo", ptr %15, i32 0, i32 2
  %16 = load ptr, ptr %fPluralRules27, align 8
  %call28 = call noundef ptr @_ZNK6icu_7511PluralRules5cloneEv(ptr noundef nonnull align 8 dereferenceable(28) %16)
  %fPluralRules29 = getelementptr inbounds %"class.icu_75::CurrencyPluralInfo", ptr %this1, i32 0, i32 2
  store ptr %call28, ptr %fPluralRules29, align 8
  %fPluralRules30 = getelementptr inbounds %"class.icu_75::CurrencyPluralInfo", ptr %this1, i32 0, i32 2
  %17 = load ptr, ptr %fPluralRules30, align 8
  %cmp31 = icmp eq ptr %17, null
  br i1 %cmp31, label %if.then32, label %if.end34

if.then32:                                        ; preds = %if.then26
  %fInternalStatus33 = getelementptr inbounds %"class.icu_75::CurrencyPluralInfo", ptr %this1, i32 0, i32 4
  store i32 7, ptr %fInternalStatus33, align 8
  store ptr %this1, ptr %retval, align 8
  br label %return

if.end34:                                         ; preds = %if.then26
  br label %if.end35

if.end35:                                         ; preds = %if.end34, %delete.end22
  %18 = load ptr, ptr %info.addr, align 8
  %fLocale36 = getelementptr inbounds %"class.icu_75::CurrencyPluralInfo", ptr %18, i32 0, i32 3
  %19 = load ptr, ptr %fLocale36, align 8
  %cmp37 = icmp ne ptr %19, null
  br i1 %cmp37, label %if.then38, label %if.end56

if.then38:                                        ; preds = %if.end35
  %20 = load ptr, ptr %info.addr, align 8
  %fLocale39 = getelementptr inbounds %"class.icu_75::CurrencyPluralInfo", ptr %20, i32 0, i32 3
  %21 = load ptr, ptr %fLocale39, align 8
  %call40 = call noundef ptr @_ZNK6icu_756Locale5cloneEv(ptr noundef nonnull align 8 dereferenceable(217) %21)
  %fLocale41 = getelementptr inbounds %"class.icu_75::CurrencyPluralInfo", ptr %this1, i32 0, i32 3
  store ptr %call40, ptr %fLocale41, align 8
  %fLocale42 = getelementptr inbounds %"class.icu_75::CurrencyPluralInfo", ptr %this1, i32 0, i32 3
  %22 = load ptr, ptr %fLocale42, align 8
  %cmp43 = icmp eq ptr %22, null
  br i1 %cmp43, label %if.then44, label %if.end46

if.then44:                                        ; preds = %if.then38
  %fInternalStatus45 = getelementptr inbounds %"class.icu_75::CurrencyPluralInfo", ptr %this1, i32 0, i32 4
  store i32 7, ptr %fInternalStatus45, align 8
  store ptr %this1, ptr %retval, align 8
  br label %return

if.end46:                                         ; preds = %if.then38
  %23 = load ptr, ptr %info.addr, align 8
  %fLocale47 = getelementptr inbounds %"class.icu_75::CurrencyPluralInfo", ptr %23, i32 0, i32 3
  %24 = load ptr, ptr %fLocale47, align 8
  %call48 = call noundef signext i8 @_ZNK6icu_756Locale7isBogusEv(ptr noundef nonnull align 8 dereferenceable(217) %24)
  %tobool49 = icmp ne i8 %call48, 0
  br i1 %tobool49, label %if.end55, label %land.lhs.true

land.lhs.true:                                    ; preds = %if.end46
  %fLocale50 = getelementptr inbounds %"class.icu_75::CurrencyPluralInfo", ptr %this1, i32 0, i32 3
  %25 = load ptr, ptr %fLocale50, align 8
  %call51 = call noundef signext i8 @_ZNK6icu_756Locale7isBogusEv(ptr noundef nonnull align 8 dereferenceable(217) %25)
  %tobool52 = icmp ne i8 %call51, 0
  br i1 %tobool52, label %if.then53, label %if.end55

if.then53:                                        ; preds = %land.lhs.true
  %fInternalStatus54 = getelementptr inbounds %"class.icu_75::CurrencyPluralInfo", ptr %this1, i32 0, i32 4
  store i32 7, ptr %fInternalStatus54, align 8
  store ptr %this1, ptr %retval, align 8
  br label %return

if.end55:                                         ; preds = %land.lhs.true, %if.end46
  br label %if.end56

if.end56:                                         ; preds = %if.end55, %if.end35
  store ptr %this1, ptr %retval, align 8
  br label %return

return:                                           ; preds = %if.end56, %if.then53, %if.then44, %if.then32, %if.then15, %if.then4, %if.then
  %26 = load ptr, ptr %retval, align 8
  ret ptr %26
}