; Function Attrs: mustprogress uwtable
define noundef nonnull align 8 dereferenceable(36) ptr @_ZN6icu_7518CurrencyPluralInfoaSERKS0_(ptr noundef nonnull returned align 8 dereferenceable(36) %this, ptr noundef nonnull readonly align 8 dereferenceable(36) %info) local_unnamed_addr #1 align 2 {
entry:
  %cmp = icmp eq ptr %this, %info
  br i1 %cmp, label %return, label %if.end

if.end:                                           ; preds = %entry
  %fInternalStatus = getelementptr inbounds i8, ptr %info, i64 32
  %0 = load i32, ptr %fInternalStatus, align 8
  %fInternalStatus2 = getelementptr inbounds i8, ptr %this, i64 32
  store i32 %0, ptr %fInternalStatus2, align 8
  %cmp.i = icmp slt i32 %0, 1
  br i1 %cmp.i, label %if.end5, label %return

if.end5:                                          ; preds = %if.end
  %fPluralCountToCurrencyUnitPattern = getelementptr inbounds i8, ptr %this, i64 8
  %1 = load ptr, ptr %fPluralCountToCurrencyUnitPattern, align 8
  tail call void @_ZN6icu_7518CurrencyPluralInfo10deleteHashEPNS_9HashtableE(ptr nonnull align 8 poison, ptr noundef %1)
  %call7 = tail call noundef ptr @_ZN6icu_7518CurrencyPluralInfo8initHashER10UErrorCode(ptr nonnull align 8 poison, ptr noundef nonnull align 4 dereferenceable(4) %fInternalStatus2)
  store ptr %call7, ptr %fPluralCountToCurrencyUnitPattern, align 8
  %fPluralCountToCurrencyUnitPattern9 = getelementptr inbounds i8, ptr %info, i64 8
  %2 = load ptr, ptr %fPluralCountToCurrencyUnitPattern9, align 8
  tail call void @_ZN6icu_7518CurrencyPluralInfo8copyHashEPKNS_9HashtableEPS1_R10UErrorCode(ptr nonnull align 8 poison, ptr noundef %2, ptr noundef %call7, ptr noundef nonnull align 4 dereferenceable(4) %fInternalStatus2)
  %3 = load i32, ptr %fInternalStatus2, align 8
  %cmp.i11 = icmp slt i32 %3, 1
  br i1 %cmp.i11, label %if.end16, label %return

if.end16:                                         ; preds = %if.end5
  %fPluralRules = getelementptr inbounds i8, ptr %this, i64 16
  %4 = load ptr, ptr %fPluralRules, align 8
  %isnull = icmp eq ptr %4, null
  br i1 %isnull, label %delete.end, label %delete.notnull

delete.notnull:                                   ; preds = %if.end16
  %vtable = load ptr, ptr %4, align 8
  %vfn = getelementptr inbounds i8, ptr %vtable, i64 8
  %5 = load ptr, ptr %vfn, align 8
  tail call void %5(ptr noundef nonnull align 8 dereferenceable(28) %4) #10
  br label %delete.end

delete.end:                                       ; preds = %delete.notnull, %if.end16
  store ptr null, ptr %fPluralRules, align 8
  %fLocale = getelementptr inbounds i8, ptr %this, i64 24
  %6 = load ptr, ptr %fLocale, align 8
  %isnull18 = icmp eq ptr %6, null
  br i1 %isnull18, label %delete.end22, label %delete.notnull19

delete.notnull19:                                 ; preds = %delete.end
  %vtable20 = load ptr, ptr %6, align 8
  %vfn21 = getelementptr inbounds i8, ptr %vtable20, i64 8
  %7 = load ptr, ptr %vfn21, align 8
  tail call void %7(ptr noundef nonnull align 8 dereferenceable(217) %6) #10
  br label %delete.end22

delete.end22:                                     ; preds = %delete.notnull19, %delete.end
  store ptr null, ptr %fLocale, align 8
  %fPluralRules24 = getelementptr inbounds i8, ptr %info, i64 16
  %8 = load ptr, ptr %fPluralRules24, align 8
  %cmp25.not = icmp eq ptr %8, null
  br i1 %cmp25.not, label %if.end35, label %if.then26

if.then26:                                        ; preds = %delete.end22
  %call28 = tail call noundef ptr @_ZNK6icu_7511PluralRules5cloneEv(ptr noundef nonnull align 8 dereferenceable(28) %8)
  store ptr %call28, ptr %fPluralRules, align 8
  %cmp31 = icmp eq ptr %call28, null
  br i1 %cmp31, label %return.sink.split, label %if.end35

if.end35:                                         ; preds = %if.then26, %delete.end22
  %fLocale36 = getelementptr inbounds i8, ptr %info, i64 24
  %9 = load ptr, ptr %fLocale36, align 8
  %cmp37.not = icmp eq ptr %9, null
  br i1 %cmp37.not, label %return, label %if.then38

if.then38:                                        ; preds = %if.end35
  %call40 = tail call noundef ptr @_ZNK6icu_756Locale5cloneEv(ptr noundef nonnull align 8 dereferenceable(217) %9)
  store ptr %call40, ptr %fLocale, align 8
  %cmp43 = icmp eq ptr %call40, null
  br i1 %cmp43, label %return.sink.split, label %if.end46

if.end46:                                         ; preds = %if.then38
  %10 = load ptr, ptr %fLocale36, align 8
  %fIsBogus.i = getelementptr inbounds i8, ptr %10, i64 216
  %11 = load i8, ptr %fIsBogus.i, align 8
  %tobool49.not = icmp eq i8 %11, 0
  br i1 %tobool49.not, label %land.lhs.true, label %return

land.lhs.true:                                    ; preds = %if.end46
  %fIsBogus.i13 = getelementptr inbounds i8, ptr %call40, i64 216
  %12 = load i8, ptr %fIsBogus.i13, align 8
  %tobool52.not = icmp eq i8 %12, 0
  br i1 %tobool52.not, label %return, label %return.sink.split

return.sink.split:                                ; preds = %land.lhs.true, %if.then38, %if.then26
  store i32 7, ptr %fInternalStatus2, align 8
  br label %return

return:                                           ; preds = %return.sink.split, %if.end35, %land.lhs.true, %if.end46, %if.end5, %if.end, %entry
  ret ptr %this
}